; Function Attrs: mustprogress uwtable
define noundef range(i64 0, 2) i64 @_ZN32pxrInternal_v0_24__pxrReserved__15HdSceneDelegate24SampleInstancerTransformERKNS_7SdfPathEmPfPNS_10GfMatrix4dE(ptr noundef nonnull align 8 dereferenceable(24) %0, ptr noundef nonnull align 4 dereferenceable(8) %1, i64 noundef %2, ptr noundef writeonly captures(none) %3, ptr noundef writeonly captures(none) %4) unnamed_addr #0 align 2 {
  %6 = alloca %"class.pxrInternal_v0_24__pxrReserved__::GfMatrix4d", align 8
  %.not = icmp eq i64 %2, 0
  br i1 %.not, label %11, label %7

7:                                                ; preds = %5
  store float 0.000000e+00, ptr %3, align 4
  %8 = load ptr, ptr %0, align 8
  %9 = getelementptr inbounds nuw i8, ptr %8, i64 256
  %10 = load ptr, ptr %9, align 8
  call void %10(ptr dead_on_unwind nonnull writable sret(%"class.pxrInternal_v0_24__pxrReserved__::GfMatrix4d") align 8 %6, ptr noundef nonnull align 8 dereferenceable(24) %0, ptr noundef nonnull align 4 dereferenceable(8) %1)
  call void @llvm.memcpy.p0.p0.i64(ptr noundef nonnull align 8 dereferenceable(128) %4, ptr noundef nonnull align 8 dereferenceable(128) %6, i64 128, i1 false)
  br label %11

11:                                               ; preds = %5, %7
  %.0 = phi i64 [ 1, %7 ], [ 0, %5 ]
  ret i64 %.0
}